; Function Attrs: mustprogress uwtable
define noundef double @_ZNK8QuantLib30GeneralizedBlackScholesProcess9diffusionEdd(ptr noundef nonnull align 8 dereferenceable(250) %this, double noundef %t, double noundef %x) unnamed_addr #7 align 2 {
entry:
  %call = tail call noundef nonnull align 8 dereferenceable(16) ptr @_ZNK8QuantLib30GeneralizedBlackScholesProcess15localVolatilityEv(ptr noundef nonnull align 8 dereferenceable(250) %this)
  %call2 = tail call noundef nonnull align 8 dereferenceable(16) ptr @_ZNK8QuantLib6HandleINS_21LocalVolTermStructureEEptEv(ptr noundef nonnull align 8 dereferenceable(16) %call)
  %0 = load ptr, ptr %call2, align 8, !tbaa !134
  %cmp.not.i = icmp eq ptr %0, null
  br i1 %cmp.not.i, label %cond.false.i, label %_ZNK5boost10shared_ptrIN8QuantLib21LocalVolTermStructureEEptEv.exit, !prof !128

cond.false.i:                                     ; preds = %entry
  tail call void @_ZN5boost16assertion_failedEPKcS1_S1_l(ptr noundef nonnull @.str.9, ptr noundef nonnull @__PRETTY_FUNCTION__._ZNK5boost10shared_ptrIN8QuantLib21LocalVolTermStructureEEptEv, ptr noundef nonnull @.str.10, i64 noundef 784)
  %.pre.i = load ptr, ptr %call2, align 8, !tbaa !134
  br label %_ZNK5boost10shared_ptrIN8QuantLib21LocalVolTermStructureEEptEv.exit

_ZNK5boost10shared_ptrIN8QuantLib21LocalVolTermStructureEEptEv.exit: ; preds = %entry, %cond.false.i
  %1 = phi ptr [ %0, %entry ], [ %.pre.i, %cond.false.i ]
  %call4 = tail call noundef double @_ZNK8QuantLib21LocalVolTermStructure8localVolEddb(ptr noundef nonnull align 8 dereferenceable(68) %1, double noundef %t, double noundef %x, i1 noundef zeroext true)
  ret double %call4
}